; Function Attrs: mustprogress uwtable
define noundef i64 @_ZNK6google8protobuf2io18StringOutputStream9ByteCountEv(ptr nocapture noundef nonnull readonly align 8 dereferenceable(16) %this) unnamed_addr #5 align 2 personality ptr @__gxx_personality_v0 {
entry:
  %ref.tmp2 = alloca %"class.absl::lts_20230802::log_internal::LogMessageFatal", align 8
  %target_ = getelementptr inbounds i8, ptr %this, i64 8
  %0 = load ptr, ptr %target_, align 8
  %cmp.not = icmp eq ptr %0, null
  br i1 %cmp.not, label %cond.false, label %cleanup.done

cond.false:                                       ; preds = %entry
  call void @_ZN4absl12lts_2023080212log_internal15LogMessageFatalC1EPKciSt17basic_string_viewIcSt11char_traitsIcEE(ptr noundef nonnull align 8 dereferenceable(16) %ref.tmp2, ptr noundef nonnull @.str.1, i32 noundef 157, i64 15, ptr nonnull @.str.6) #26
  call void @_ZN4absl12lts_2023080212log_internal15LogMessageFatalD1Ev(ptr noundef nonnull align 8 dereferenceable(16) %ref.tmp2) #27
  unreachable

cleanup.done:                                     ; preds = %entry
  %call8 = tail call noundef i64 @_ZNKSt7__cxx1112basic_stringIcSt11char_traitsIcESaIcEE4sizeEv(ptr noundef nonnull align 8 dereferenceable(32) %0) #25
  ret i64 %call8
}